target datalayout = "e-m:e-p270:32:32-p271:32:32-p272:64:64-i64:64-i128:128-f80:128-n8:16:32:64-S128"
target triple = "x86_64-pc-linux-gnu"

@.str = private unnamed_addr constant [33 x i8] c"../openssl/crypto/cmp/cmp_util.c\00", align 1
@__func__.ossl_cmp_X509_STORE_add1_certs = private unnamed_addr constant [31 x i8] c"ossl_cmp_X509_STORE_add1_certs\00", align 1

; Function Attrs: inlinehint nounwind uwtable
define internal ptr @ossl_check_const_X509_sk_type(ptr noundef %0) #5 {
  %2 = alloca ptr, align 8
  store ptr %0, ptr %2, align 8, !tbaa !26
  %3 = load ptr, ptr %2, align 8, !tbaa !26
  ret ptr %3
}

; Function Attrs: nounwind uwtable
define i32 @ossl_cmp_X509_STORE_add1_certs(ptr noundef %0, ptr noundef %1, i32 noundef %2) #0 {
  %4 = alloca i32, align 4
  %5 = alloca ptr, align 8
  %6 = alloca ptr, align 8
  %7 = alloca i32, align 4
  %8 = alloca i32, align 4
  %9 = alloca i32, align 4
  %10 = alloca ptr, align 8
  store ptr %0, ptr %5, align 8, !tbaa !24
  store ptr %1, ptr %6, align 8, !tbaa !26
  store i32 %2, ptr %7, align 4, !tbaa !12
  call void @llvm.lifetime.start.p0(i64 4, ptr %8) #7
  %11 = load ptr, ptr %5, align 8, !tbaa !24
  %12 = icmp eq ptr %11, null
  br i1 %12, label %13, label %14

13:                                               ; preds = %3
  call void @ERR_new()
  call void @ERR_set_debug(ptr noundef @.str, i32 noundef 207, ptr noundef @__func__.ossl_cmp_X509_STORE_add1_certs)
  call void (i32, i32, ptr, ...) @ERR_set_error(i32 noundef 58, i32 noundef 103, ptr noundef null)
  store i32 0, ptr %4, align 4
  store i32 1, ptr %9, align 4
  br label %51

14:                                               ; preds = %3
  %15 = load ptr, ptr %6, align 8, !tbaa !26
  %16 = icmp eq ptr %15, null
  br i1 %16, label %17, label %18

17:                                               ; preds = %14
  store i32 1, ptr %4, align 4
  store i32 1, ptr %9, align 4
  br label %51

18:                                               ; preds = %14
  store i32 0, ptr %8, align 4, !tbaa !12
  br label %19

19:                                               ; preds = %47, %18
  %20 = load i32, ptr %8, align 4, !tbaa !12
  %21 = load ptr, ptr %6, align 8, !tbaa !26
  %22 = call ptr @ossl_check_const_X509_sk_type(ptr noundef %21)
  %23 = call i32 @OPENSSL_sk_num(ptr noundef %22)
  %24 = icmp slt i32 %20, %23
  br i1 %24, label %25, label %50

25:                                               ; preds = %19
  call void @llvm.lifetime.start.p0(i64 8, ptr %10) #7
  %26 = load ptr, ptr %6, align 8, !tbaa !26
  %27 = call ptr @ossl_check_const_X509_sk_type(ptr noundef %26)
  %28 = load i32, ptr %8, align 4, !tbaa !12
  %29 = call ptr @OPENSSL_sk_value(ptr noundef %27, i32 noundef %28)
  store ptr %29, ptr %10, align 8, !tbaa !28
  %30 = load i32, ptr %7, align 4, !tbaa !12
  %31 = icmp ne i32 %30, 0
  br i1 %31, label %32, label %36

32:                                               ; preds = %25
  %33 = load ptr, ptr %10, align 8, !tbaa !28
  %34 = call i32 @X509_self_signed(ptr noundef %33, i32 noundef 0)
  %35 = icmp eq i32 %34, 1
  br i1 %35, label %36, label %43

36:                                               ; preds = %32, %25
  %37 = load ptr, ptr %5, align 8, !tbaa !24
  %38 = load ptr, ptr %10, align 8, !tbaa !28
  %39 = call i32 @X509_STORE_add_cert(ptr noundef %37, ptr noundef %38)
  %40 = icmp ne i32 %39, 0
  br i1 %40, label %42, label %41

41:                                               ; preds = %36
  store i32 0, ptr %4, align 4
  store i32 1, ptr %9, align 4
  br label %44

42:                                               ; preds = %36
  br label %43

43:                                               ; preds = %42, %32
  store i32 0, ptr %9, align 4
  br label %44

44:                                               ; preds = %43, %41
  call void @llvm.lifetime.end.p0(i64 8, ptr %10) #7
  %45 = load i32, ptr %9, align 4
  switch i32 %45, label %51 [
    i32 0, label %46
  ]

46:                                               ; preds = %44
  br label %47

47:                                               ; preds = %46
  %48 = load i32, ptr %8, align 4, !tbaa !12
  %49 = add nsw i32 %48, 1
  store i32 %49, ptr %8, align 4, !tbaa !12
  br label %19, !llvm.loop !30

50:                                               ; preds = %19
  store i32 1, ptr %4, align 4
  store i32 1, ptr %9, align 4
  br label %51

51:                                               ; preds = %50, %44, %17, %13
  call void @llvm.lifetime.end.p0(i64 4, ptr %8) #7
  %52 = load i32, ptr %4, align 4
  ret i32 %52
}