; Function Attrs: nounwind uwtable
define range(i32 0, 2) i32 @ossl_cmp_X509_STORE_add1_certs(ptr noundef %0, ptr noundef %1, i32 noundef %2) local_unnamed_addr #1 {
  %4 = icmp eq ptr %0, null
  br i1 %4, label %5, label %6

5:                                                ; preds = %3
  tail call void @ERR_new() #7
  tail call void @ERR_set_debug(ptr noundef nonnull @.str, i32 noundef 207, ptr noundef nonnull @__func__.ossl_cmp_X509_STORE_add1_certs) #7
  tail call void (i32, i32, ptr, ...) @ERR_set_error(i32 noundef 58, i32 noundef 103, ptr noundef null) #7
  br label %.loopexit

6:                                                ; preds = %3
  %7 = icmp eq ptr %1, null
  br i1 %7, label %.loopexit, label %.preheader

.preheader:                                       ; preds = %6
  %8 = tail call i32 @OPENSSL_sk_num(ptr noundef nonnull %1) #7
  %9 = icmp sgt i32 %8, 0
  br i1 %9, label %.lr.ph, label %.loopexit

.lr.ph:                                           ; preds = %.preheader
  %.not = icmp eq i32 %2, 0
  br i1 %.not, label %.lr.ph.split.us, label %.lr.ph.split

.lr.ph.split.us:                                  ; preds = %.lr.ph, %.critedge.us
  %.01317.us = phi i32 [ %12, %.critedge.us ], [ 0, %.lr.ph ]
  %10 = tail call ptr @OPENSSL_sk_value(ptr noundef nonnull %1, i32 noundef %.01317.us) #7
  %11 = tail call i32 @X509_STORE_add_cert(ptr noundef nonnull %0, ptr noundef %10) #7
  %.not16.us = icmp eq i32 %11, 0
  br i1 %.not16.us, label %.loopexit, label %.critedge.us

.critedge.us:                                     ; preds = %.lr.ph.split.us
  %12 = add nuw nsw i32 %.01317.us, 1
  %13 = tail call i32 @OPENSSL_sk_num(ptr noundef nonnull %1) #7
  %14 = icmp slt i32 %12, %13
  br i1 %14, label %.lr.ph.split.us, label %.loopexit, !llvm.loop !13

.lr.ph.split:                                     ; preds = %.lr.ph, %.critedge
  %.01317 = phi i32 [ %20, %.critedge ], [ 0, %.lr.ph ]
  %15 = tail call ptr @OPENSSL_sk_value(ptr noundef nonnull %1, i32 noundef %.01317) #7
  %16 = tail call i32 @X509_self_signed(ptr noundef %15, i32 noundef 0) #7
  %17 = icmp eq i32 %16, 1
  br i1 %17, label %18, label %.critedge

18:                                               ; preds = %.lr.ph.split
  %19 = tail call i32 @X509_STORE_add_cert(ptr noundef nonnull %0, ptr noundef %15) #7
  %.not16 = icmp eq i32 %19, 0
  br i1 %.not16, label %.loopexit, label %.critedge

.critedge:                                        ; preds = %18, %.lr.ph.split
  %20 = add nuw nsw i32 %.01317, 1
  %21 = tail call i32 @OPENSSL_sk_num(ptr noundef nonnull %1) #7
  %22 = icmp slt i32 %20, %21
  br i1 %22, label %.lr.ph.split, label %.loopexit, !llvm.loop !13

.loopexit:                                        ; preds = %18, %.critedge, %.lr.ph.split.us, %.critedge.us, %.preheader, %6, %5
  %.0 = phi i32 [ 0, %5 ], [ 1, %6 ], [ 1, %.preheader ], [ 0, %.lr.ph.split.us ], [ 1, %.critedge.us ], [ 0, %18 ], [ 1, %.critedge ]
  ret i32 %.0
}